; Function Attrs: nounwind uwtable
define noalias noundef ptr @Gia_ManFindSharedInputs(ptr noundef %0) local_unnamed_addr #0 {
  %2 = getelementptr i8, ptr %0, i64 64
  %.val42 = load ptr, ptr %2, align 8
  %3 = getelementptr i8, ptr %.val42, i64 4
  %.val42.val = load i32, ptr %3, align 4
  %4 = tail call noalias dereferenceable_or_null(16) ptr @malloc(i64 noundef 16) #28
  %5 = add i32 %.val42.val, -1
  %or.cond.i.i = icmp ult i32 %5, 15
  %spec.store.select.i.i = select i1 %or.cond.i.i, i32 16, i32 %.val42.val
  %6 = getelementptr i8, ptr %4, i64 4
  store i32 %spec.store.select.i.i, ptr %4, align 8
  %.not.i.i = icmp eq i32 %spec.store.select.i.i, 0
  br i1 %.not.i.i, label %Vec_IntAlloc.exit.thread.i, label %Vec_IntAlloc.exit.i

Vec_IntAlloc.exit.thread.i:                       ; preds = %1
  %7 = getelementptr inbounds nuw i8, ptr %4, i64 8
  store ptr null, ptr %7, align 8
  store i32 %.val42.val, ptr %6, align 4
  br label %Vec_IntStart.exit

Vec_IntAlloc.exit.i:                              ; preds = %1
  %8 = sext i32 %spec.store.select.i.i to i64
  %9 = shl nsw i64 %8, 2
  %10 = tail call noalias ptr @malloc(i64 noundef %9) #28
  %11 = getelementptr inbounds nuw i8, ptr %4, i64 8
  store ptr %10, ptr %11, align 8
  store i32 %.val42.val, ptr %6, align 4
  %.not.i = icmp eq ptr %10, null
  br i1 %.not.i, label %Vec_IntStart.exit, label %12

12:                                               ; preds = %Vec_IntAlloc.exit.i
  %13 = sext i32 %.val42.val to i64
  %14 = shl nsw i64 %13, 2
  tail call void @llvm.memset.p0.i64(ptr nonnull align 4 %10, i8 0, i64 %14, i1 false)
  br label %Vec_IntStart.exit

Vec_IntStart.exit:                                ; preds = %Vec_IntAlloc.exit.thread.i, %Vec_IntAlloc.exit.i, %12
  %15 = phi ptr [ null, %Vec_IntAlloc.exit.thread.i ], [ null, %Vec_IntAlloc.exit.i ], [ %10, %12 ]
  %16 = getelementptr i8, ptr %0, i64 32
  %17 = getelementptr inbounds nuw i8, ptr %0, i64 72
  %18 = load ptr, ptr %17, align 8
  %19 = getelementptr i8, ptr %18, i64 4
  %.val3763 = load i32, ptr %19, align 4
  %20 = icmp sgt i32 %.val3763, 0
  br i1 %20, label %.lr.ph65, label %.critedge

.lr.ph65:                                         ; preds = %Vec_IntStart.exit
  %21 = getelementptr inbounds nuw i8, ptr %0, i64 616
  %22 = getelementptr inbounds nuw i8, ptr %0, i64 176
  br label %23

23:                                               ; preds = %.lr.ph65, %.critedge2
  %indvars.iv71 = phi i64 [ 0, %.lr.ph65 ], [ %indvars.iv.next72, %.critedge2 ]
  %24 = phi ptr [ %18, %.lr.ph65 ], [ %55, %.critedge2 ]
  %.val40 = load ptr, ptr %16, align 8
  %.not = icmp eq ptr %.val40, null
  br i1 %.not, label %.critedge, label %25

25:                                               ; preds = %23
  %26 = getelementptr i8, ptr %24, i64 8
  %.val41.val = load ptr, ptr %26, align 8
  %27 = getelementptr inbounds nuw i32, ptr %.val41.val, i64 %indvars.iv71
  %28 = load i32, ptr %27, align 4
  %29 = sext i32 %28 to i64
  %30 = getelementptr inbounds %struct.Gia_Obj_t_, ptr %.val40, i64 %29
  tail call void @Gia_ManIncrementTravId(ptr noundef nonnull %0) #26
  %31 = load i64, ptr %30, align 4
  %32 = and i64 %31, 536870911
  %33 = sub nsw i64 0, %32
  %34 = getelementptr inbounds %struct.Gia_Obj_t_, ptr %30, i64 %33
  tail call void @Gia_ManMarkTfi_rec(ptr noundef nonnull %0, ptr noundef nonnull %34)
  %35 = load ptr, ptr %2, align 8
  %36 = getelementptr i8, ptr %35, i64 4
  %.val3660 = load i32, ptr %36, align 4
  %37 = icmp sgt i32 %.val3660, 0
  br i1 %37, label %.lr.ph.preheader, label %.critedge2

.lr.ph.preheader:                                 ; preds = %25
  %.val45 = load ptr, ptr %16, align 8
  %.not32 = icmp eq ptr %.val45, null
  %38 = getelementptr i8, ptr %35, i64 8
  br label %.lr.ph

.lr.ph:                                           ; preds = %.lr.ph.preheader, %52
  %.val3678 = phi i32 [ %.val3660, %.lr.ph.preheader ], [ %.val36, %52 ]
  %indvars.iv = phi i64 [ 0, %.lr.ph.preheader ], [ %indvars.iv.next, %52 ]
  br i1 %.not32, label %.critedge2, label %39

39:                                               ; preds = %.lr.ph
  %.val46.val = load ptr, ptr %38, align 8
  %40 = getelementptr inbounds nuw i32, ptr %.val46.val, i64 %indvars.iv
  %41 = load i32, ptr %40, align 4
  %42 = zext i32 %41 to i64
  %43 = load ptr, ptr %21, align 8
  %sext.i = shl nuw i64 %42, 32
  %44 = ashr exact i64 %sext.i, 30
  %45 = getelementptr inbounds i8, ptr %43, i64 %44
  %46 = load i32, ptr %45, align 4
  %47 = load i32, ptr %22, align 8
  %.not59 = icmp eq i32 %46, %47
  br i1 %.not59, label %48, label %52

48:                                               ; preds = %39
  %49 = getelementptr inbounds nuw i32, ptr %15, i64 %indvars.iv
  %50 = load i32, ptr %49, align 4
  %51 = add nsw i32 %50, 1
  store i32 %51, ptr %49, align 4
  %.val36.pre = load i32, ptr %36, align 4
  br label %52

52:                                               ; preds = %39, %48
  %.val36 = phi i32 [ %.val3678, %39 ], [ %.val36.pre, %48 ]
  %indvars.iv.next = add nuw nsw i64 %indvars.iv, 1
  %53 = sext i32 %.val36 to i64
  %54 = icmp slt i64 %indvars.iv.next, %53
  br i1 %54, label %.lr.ph, label %.critedge2, !llvm.loop !52

.critedge2:                                       ; preds = %52, %.lr.ph, %25
  %indvars.iv.next72 = add nuw nsw i64 %indvars.iv71, 1
  %55 = load ptr, ptr %17, align 8
  %56 = getelementptr i8, ptr %55, i64 4
  %.val37 = load i32, ptr %56, align 4
  %57 = sext i32 %.val37 to i64
  %58 = icmp slt i64 %indvars.iv.next72, %57
  br i1 %58, label %23, label %.critedge, !llvm.loop !53

.critedge:                                        ; preds = %23, %.critedge2, %Vec_IntStart.exit
  %.val43 = phi ptr [ %18, %Vec_IntStart.exit ], [ %24, %23 ], [ %55, %.critedge2 ]
  %59 = icmp sgt i32 %.val42.val, 0
  br i1 %59, label %.lr.ph69, label %73

.lr.ph69:                                         ; preds = %.critedge
  %wide.trip.count = zext nneg i32 %.val42.val to i64
  %60 = getelementptr i8, ptr %.val43, i64 4
  br label %61

61:                                               ; preds = %.lr.ph69, %70
  %indvars.iv74 = phi i64 [ 0, %.lr.ph69 ], [ %indvars.iv.next75, %70 ]
  %.12967 = phi i32 [ 0, %.lr.ph69 ], [ %.2, %70 ]
  %62 = getelementptr inbounds nuw i32, ptr %15, i64 %indvars.iv74
  %63 = load i32, ptr %62, align 4
  %.val43.val = load i32, ptr %60, align 4
  %64 = icmp eq i32 %63, %.val43.val
  br i1 %64, label %65, label %70

65:                                               ; preds = %61
  %66 = add nsw i32 %.12967, 1
  %67 = sext i32 %.12967 to i64
  %68 = getelementptr inbounds i32, ptr %15, i64 %67
  %69 = trunc nuw nsw i64 %indvars.iv74 to i32
  store i32 %69, ptr %68, align 4
  br label %70

70:                                               ; preds = %61, %65
  %.2 = phi i32 [ %66, %65 ], [ %.12967, %61 ]
  %indvars.iv.next75 = add nuw nsw i64 %indvars.iv74, 1
  %exitcond.not = icmp eq i64 %indvars.iv.next75, %wide.trip.count
  br i1 %exitcond.not, label %.critedge4, label %61, !llvm.loop !54

.critedge4:                                       ; preds = %70
  store i32 %.2, ptr %6, align 4
  %71 = icmp eq i32 %.2, 0
  %72 = icmp sgt i32 %.2, 10
  %or.cond = or i1 %71, %72
  br i1 %or.cond, label %.thread, label %74

73:                                               ; preds = %.critedge
  %.not.i47 = icmp eq ptr %15, null
  br i1 %.not.i47, label %Vec_IntFreeP.exit, label %.thread

.thread:                                          ; preds = %.critedge4, %73
  tail call void @free(ptr noundef nonnull %15) #26
  br label %Vec_IntFreeP.exit

Vec_IntFreeP.exit:                                ; preds = %73, %.thread
  tail call void @free(ptr noundef nonnull %4) #26
  br label %74

74:                                               ; preds = %.critedge4, %Vec_IntFreeP.exit
  %.057 = phi ptr [ null, %Vec_IntFreeP.exit ], [ %4, %.critedge4 ]
  ret ptr %.057
}